; Function Attrs: nounwind uwtable
define hidden zeroext range(i8 0, 2) i8 @getBooleanAttribute(ptr noundef %0, ptr noundef %1) local_unnamed_addr #0 {
  %3 = tail call ptr @getAttribute(ptr noundef %0, ptr noundef %1) #15
  %.not = icmp eq ptr %3, null
  br i1 %.not, label %8, label %4

4:                                                ; preds = %2
  %5 = tail call i32 @strcasecmp(ptr noundef nonnull %3, ptr noundef nonnull @.str) #16
  %6 = icmp eq i32 %5, 0
  %7 = zext i1 %6 to i8
  br label %8

8:                                                ; preds = %4, %2
  %9 = phi i8 [ 0, %2 ], [ %7, %4 ]
  ret i8 %9
}